ccopy_reg
_reconstructor
p0
(cakrr.akrr_task.akrr_task_appker
AkrrTaskHandlerAppKer
p1
c__builtin__
object
p2
Ntp3
Rp4
(dp5
VresourceName
p6
Vstampede2-skx
p7
sVappName
p8
Vhpcc
p9
sVresourceParam
p10
(dp11
Vnnodes
p12
L4L
ssVappParam
p13
(dp14
sVtaskParam
p15
(dp16
Vtest_run
p17
I00
ssVtimeToSubmit
p18
NsVrepetition
p19
NsVtask_id
p20
L3818655L
sVresource
p21
NsVapp
p22
NsVresourceDir
p23
V/home/xdmod/akrr/log/data/stampede2-skx
p24
sVappDir
p25
V/home/xdmod/akrr/log/data/stampede2-skx/hpcc
p26
sVtaskDir
p27
V/home/xdmod/akrr/log/data/stampede2-skx/hpcc/2020.11.30.18.48.01.378476
p28
sVtimeStamp
p29
V2020.11.30.18.48.01.378476
p30
sVremoteTaskDir
p31
V/scratch/01482/xdtas/akrrdata/stampede2-skx/hpcc/2020.11.30.18.48.01.378476
p32
sVJobScriptName
p33
NsVLastPickledState
p34
L0L
sVfatal_errors_count
p35
L0L
sV_method_to_run_next
p36
Vfirst_step
p37
sVstatus
p38
VActivated
p39
sVstatus_info
p40
g39
sV_old_method_to_run_next
p41
VDoes not exist
p42
sV_old_status
p43
g42
sVReportFormat
p44
NsVnodesList
p45
NsVRemoteJobID
p46
NsVTimeJobSubmetedToRemoteQueue
p47
NsVTimeJobPossiblyCompleted
p48
NsVfails_to_submit_to_the_queue
p49
L0L
sVPushToDBAttemps
p50
L0L
sVopenstack_server_ip
p51
Nsb.